CCS PCM C Compiler, Version 5.101, 43599               13-Jun-22 17:57

               Filename:   C:\Users\Fee\OneDrive\Máy tính\VXL\ultra-pwm.lst

               ROM used:   694 words (8%)
                           Largest free fragment is 2048
               RAM used:   16 (4%) at main() level
                           30 (8%) worst case
               Stack used: 1 locations
               Stack size: 8

*
0000:  MOVLW  02
0001:  MOVWF  0A
0002:  GOTO   218
0003:  NOP
.................... #include <16f887.h>
.................... //////////// Standard Header file for the PIC16F887 device ////////////////
.................... ///////////////////////////////////////////////////////////////////////////
.................... ////        (C) Copyright 1996, 2020 Custom Computer Services          ////
.................... //// This source code may only be used by licensed users of the CCS C  ////
.................... //// compiler.  This source code may only be distributed to other      ////
.................... //// licensed users of the CCS C compiler.  No other use, reproduction ////
.................... //// or distribution is permitted without written permission.          ////
.................... //// Derivative programs created using this software in object code    ////
.................... //// form are not restricted in any way.                               ////
.................... ///////////////////////////////////////////////////////////////////////////
.................... #device PIC16F887
*
004D:  MOVLW  8E
004E:  MOVWF  77
004F:  MOVF   2C,W
0050:  MOVWF  78
0051:  MOVF   2B,W
0052:  MOVWF  79
0053:  CLRF   7A
0054:  MOVF   78,F
0055:  BTFSS  03.2
0056:  GOTO   061
0057:  MOVF   79,W
0058:  MOVWF  78
0059:  CLRF   79
005A:  MOVLW  08
005B:  SUBWF  77,F
005C:  MOVF   78,F
005D:  BTFSS  03.2
005E:  GOTO   061
005F:  CLRF   77
0060:  GOTO   069
0061:  BCF    03.0
0062:  BTFSC  78.7
0063:  GOTO   068
0064:  RLF    79,F
0065:  RLF    78,F
0066:  DECF   77,F
0067:  GOTO   061
0068:  BCF    78.7
*
0079:  MOVF   2B,W
007A:  BTFSC  03.2
007B:  GOTO   0E9
007C:  MOVWF  33
007D:  MOVF   2F,W
007E:  BTFSC  03.2
007F:  GOTO   0E9
0080:  ADDWF  33,F
0081:  BTFSC  03.0
0082:  GOTO   08A
0083:  MOVLW  7F
0084:  SUBWF  33,F
0085:  BTFSS  03.0
0086:  GOTO   0E9
0087:  BTFSC  03.2
0088:  GOTO   0E9
0089:  GOTO   08E
008A:  MOVLW  81
008B:  ADDWF  33,F
008C:  BTFSC  03.0
008D:  GOTO   0E9
008E:  MOVF   33,W
008F:  MOVWF  77
0090:  CLRF   78
0091:  CLRF   79
0092:  CLRF   7A
0093:  MOVF   2C,W
0094:  MOVWF  37
0095:  BSF    37.7
0096:  MOVF   2D,W
0097:  MOVWF  36
0098:  MOVF   2E,W
0099:  MOVWF  35
009A:  MOVLW  18
009B:  MOVWF  33
009C:  CLRF   34
009D:  BTFSS  35.0
009E:  GOTO   0B7
009F:  MOVF   32,W
00A0:  ADDWF  7A,F
00A1:  BTFSS  03.0
00A2:  GOTO   0A9
00A3:  INCF   79,F
00A4:  BTFSS  03.2
00A5:  GOTO   0A9
00A6:  INCF   78,F
00A7:  BTFSC  03.2
00A8:  BSF    34.7
00A9:  MOVF   31,W
00AA:  ADDWF  79,F
00AB:  BTFSS  03.0
00AC:  GOTO   0B0
00AD:  INCF   78,F
00AE:  BTFSC  03.2
00AF:  BSF    34.7
00B0:  MOVF   30,W
00B1:  MOVWF  2D
00B2:  BSF    2D.7
00B3:  MOVF   2D,W
00B4:  ADDWF  78,F
00B5:  BTFSC  03.0
00B6:  BSF    34.7
00B7:  RLF    34,F
00B8:  RRF    78,F
00B9:  RRF    79,F
00BA:  RRF    7A,F
00BB:  RRF    37,F
00BC:  RRF    36,F
00BD:  RRF    35,F
00BE:  BCF    03.0
00BF:  DECFSZ 33,F
00C0:  GOTO   09C
00C1:  MOVLW  01
00C2:  ADDWF  77,F
00C3:  BTFSC  03.0
00C4:  GOTO   0E9
00C5:  BTFSC  78.7
00C6:  GOTO   0CE
00C7:  RLF    37,F
00C8:  RLF    7A,F
00C9:  RLF    79,F
00CA:  RLF    78,F
00CB:  DECF   77,F
00CC:  BTFSC  03.2
00CD:  GOTO   0E9
00CE:  BTFSS  37.7
00CF:  GOTO   0DF
00D0:  INCF   7A,F
00D1:  BTFSS  03.2
00D2:  GOTO   0DF
00D3:  INCF   79,F
00D4:  BTFSS  03.2
00D5:  GOTO   0DF
00D6:  INCF   78,F
00D7:  BTFSS  03.2
00D8:  GOTO   0DF
00D9:  RRF    78,F
00DA:  RRF    79,F
00DB:  RRF    7A,F
00DC:  INCF   77,F
00DD:  BTFSC  03.2
00DE:  GOTO   0E9
00DF:  MOVF   2C,W
00E0:  MOVWF  34
00E1:  MOVF   30,W
00E2:  XORWF  34,F
00E3:  BTFSS  34.7
00E4:  GOTO   0E7
00E5:  BSF    78.7
00E6:  GOTO   0ED
00E7:  BCF    78.7
00E8:  GOTO   0ED
00E9:  CLRF   77
00EA:  CLRF   78
00EB:  CLRF   79
00EC:  CLRF   7A
*
0105:  MOVF   2B,W
0106:  BTFSC  03.2
0107:  GOTO   1CA
0108:  MOVWF  37
0109:  MOVF   2F,W
010A:  BTFSC  03.2
010B:  GOTO   1CA
010C:  SUBWF  37,F
010D:  BTFSS  03.0
010E:  GOTO   114
010F:  MOVLW  7F
0110:  ADDWF  37,F
0111:  BTFSC  03.0
0112:  GOTO   1CA
0113:  GOTO   11A
0114:  MOVLW  81
0115:  SUBWF  37,F
0116:  BTFSS  03.0
0117:  GOTO   1CA
0118:  BTFSC  03.2
0119:  GOTO   1CA
011A:  MOVF   37,W
011B:  MOVWF  77
011C:  CLRF   78
011D:  CLRF   79
011E:  CLRF   7A
011F:  CLRF   36
0120:  MOVF   2C,W
0121:  MOVWF  35
0122:  BSF    35.7
0123:  MOVF   2D,W
0124:  MOVWF  34
0125:  MOVF   2E,W
0126:  MOVWF  33
0127:  MOVLW  19
0128:  MOVWF  37
0129:  MOVF   32,W
012A:  SUBWF  33,F
012B:  BTFSC  03.0
012C:  GOTO   13D
012D:  MOVLW  01
012E:  SUBWF  34,F
012F:  BTFSC  03.0
0130:  GOTO   13D
0131:  SUBWF  35,F
0132:  BTFSC  03.0
0133:  GOTO   13D
0134:  SUBWF  36,F
0135:  BTFSC  03.0
0136:  GOTO   13D
0137:  INCF   36,F
0138:  INCF   35,F
0139:  INCF   34,F
013A:  MOVF   32,W
013B:  ADDWF  33,F
013C:  GOTO   16F
013D:  MOVF   31,W
013E:  SUBWF  34,F
013F:  BTFSC  03.0
0140:  GOTO   158
0141:  MOVLW  01
0142:  SUBWF  35,F
0143:  BTFSC  03.0
0144:  GOTO   158
0145:  SUBWF  36,F
0146:  BTFSC  03.0
0147:  GOTO   158
0148:  INCF   36,F
0149:  INCF   35,F
014A:  MOVF   31,W
014B:  ADDWF  34,F
014C:  MOVF   32,W
014D:  ADDWF  33,F
014E:  BTFSS  03.0
014F:  GOTO   16F
0150:  INCF   34,F
0151:  BTFSS  03.2
0152:  GOTO   16F
0153:  INCF   35,F
0154:  BTFSS  03.2
0155:  GOTO   16F
0156:  INCF   36,F
0157:  GOTO   16F
0158:  MOVF   30,W
0159:  IORLW  80
015A:  SUBWF  35,F
015B:  BTFSC  03.0
015C:  GOTO   16E
015D:  MOVLW  01
015E:  SUBWF  36,F
015F:  BTFSC  03.0
0160:  GOTO   16E
0161:  INCF   36,F
0162:  MOVF   30,W
0163:  IORLW  80
0164:  ADDWF  35,F
0165:  MOVF   31,W
0166:  ADDWF  34,F
0167:  BTFSS  03.0
0168:  GOTO   14C
0169:  INCF   35,F
016A:  BTFSS  03.2
016B:  GOTO   14C
016C:  INCF   36,F
016D:  GOTO   14C
016E:  BSF    7A.0
016F:  DECFSZ 37,F
0170:  GOTO   172
0171:  GOTO   17D
0172:  BCF    03.0
0173:  RLF    33,F
0174:  RLF    34,F
0175:  RLF    35,F
0176:  RLF    36,F
0177:  BCF    03.0
0178:  RLF    7A,F
0179:  RLF    79,F
017A:  RLF    78,F
017B:  RLF    38,F
017C:  GOTO   129
017D:  BTFSS  38.0
017E:  GOTO   185
017F:  BCF    03.0
0180:  RRF    78,F
0181:  RRF    79,F
0182:  RRF    7A,F
0183:  RRF    38,F
0184:  GOTO   188
0185:  DECF   77,F
0186:  BTFSC  03.2
0187:  GOTO   1CA
0188:  BTFSC  38.7
0189:  GOTO   1B1
018A:  BCF    03.0
018B:  RLF    33,F
018C:  RLF    34,F
018D:  RLF    35,F
018E:  RLF    36,F
018F:  MOVF   32,W
0190:  SUBWF  33,F
0191:  BTFSC  03.0
0192:  GOTO   19D
0193:  MOVLW  01
0194:  SUBWF  34,F
0195:  BTFSC  03.0
0196:  GOTO   19D
0197:  SUBWF  35,F
0198:  BTFSC  03.0
0199:  GOTO   19D
019A:  SUBWF  36,F
019B:  BTFSS  03.0
019C:  GOTO   1C0
019D:  MOVF   31,W
019E:  SUBWF  34,F
019F:  BTFSC  03.0
01A0:  GOTO   1A8
01A1:  MOVLW  01
01A2:  SUBWF  35,F
01A3:  BTFSC  03.0
01A4:  GOTO   1A8
01A5:  SUBWF  36,F
01A6:  BTFSS  03.0
01A7:  GOTO   1C0
01A8:  MOVF   30,W
01A9:  IORLW  80
01AA:  SUBWF  35,F
01AB:  BTFSC  03.0
01AC:  GOTO   1B1
01AD:  MOVLW  01
01AE:  SUBWF  36,F
01AF:  BTFSS  03.0
01B0:  GOTO   1C0
01B1:  INCF   7A,F
01B2:  BTFSS  03.2
01B3:  GOTO   1C0
01B4:  INCF   79,F
01B5:  BTFSS  03.2
01B6:  GOTO   1C0
01B7:  INCF   78,F
01B8:  BTFSS  03.2
01B9:  GOTO   1C0
01BA:  INCF   77,F
01BB:  BTFSC  03.2
01BC:  GOTO   1CA
01BD:  RRF    78,F
01BE:  RRF    79,F
01BF:  RRF    7A,F
01C0:  MOVF   2C,W
01C1:  MOVWF  37
01C2:  MOVF   30,W
01C3:  XORWF  37,F
01C4:  BTFSS  37.7
01C5:  GOTO   1C8
01C6:  BSF    78.7
01C7:  GOTO   1CE
01C8:  BCF    78.7
01C9:  GOTO   1CE
01CA:  CLRF   77
01CB:  CLRF   78
01CC:  CLRF   79
01CD:  CLRF   7A
*
01D9:  MOVF   2C,W
01DA:  MOVWF  33
01DB:  MOVF   30,W
01DC:  XORWF  33,F
01DD:  BTFSS  33.7
01DE:  GOTO   1E4
01DF:  BCF    03.2
01E0:  BCF    03.0
01E1:  BTFSC  2C.7
01E2:  BSF    03.0
01E3:  GOTO   217
01E4:  MOVF   2C,W
01E5:  MOVWF  33
01E6:  MOVF   2F,W
01E7:  MOVWF  34
01E8:  MOVF   2B,W
01E9:  SUBWF  34,F
01EA:  BTFSC  03.2
01EB:  GOTO   1F2
01EC:  BTFSS  33.7
01ED:  GOTO   217
01EE:  MOVF   03,W
01EF:  XORLW  01
01F0:  MOVWF  03
01F1:  GOTO   217
01F2:  MOVF   30,W
01F3:  MOVWF  34
01F4:  MOVF   2C,W
01F5:  SUBWF  34,F
01F6:  BTFSC  03.2
01F7:  GOTO   1FE
01F8:  BTFSS  33.7
01F9:  GOTO   217
01FA:  MOVF   03,W
01FB:  XORLW  01
01FC:  MOVWF  03
01FD:  GOTO   217
01FE:  MOVF   31,W
01FF:  MOVWF  34
0200:  MOVF   2D,W
0201:  SUBWF  34,F
0202:  BTFSC  03.2
0203:  GOTO   20A
0204:  BTFSS  33.7
0205:  GOTO   217
0206:  MOVF   03,W
0207:  XORLW  01
0208:  MOVWF  03
0209:  GOTO   217
020A:  MOVF   32,W
020B:  MOVWF  34
020C:  MOVF   2E,W
020D:  SUBWF  34,F
020E:  BTFSC  03.2
020F:  GOTO   216
0210:  BTFSS  33.7
0211:  GOTO   217
0212:  MOVF   03,W
0213:  XORLW  01
0214:  MOVWF  03
0215:  GOTO   217
0216:  BCF    03.0
0217:  RETURN
.................... 
.................... #list
.................... 
.................... #define motor_en pin_c7
.................... #define echo pin_c3
.................... #define trigger pin_c4
.................... #define led pin_c0
.................... #use delay(clock = 20MHz)
*
0004:  MOVLW  2B
0005:  MOVWF  04
0006:  BCF    03.7
0007:  MOVF   00,W
0008:  BTFSC  03.2
0009:  GOTO   017
000A:  MOVLW  06
000B:  MOVWF  78
000C:  CLRF   77
000D:  DECFSZ 77,F
000E:  GOTO   00D
000F:  DECFSZ 78,F
0010:  GOTO   00C
0011:  MOVLW  7B
0012:  MOVWF  77
0013:  DECFSZ 77,F
0014:  GOTO   013
0015:  DECFSZ 00,F
0016:  GOTO   00A
0017:  RETURN
.................... #fuses HS
.................... 
.................... float distance, time;
.................... int16 xung; 
.................... 
.................... void get_distance()
.................... { 
....................    output_high (trigger);
0018:  BCF    2A.4
0019:  MOVF   2A,W
001A:  BSF    03.5
001B:  MOVWF  07
001C:  BCF    03.5
001D:  BSF    07.4
....................    delay_us(20);
001E:  MOVLW  21
001F:  MOVWF  77
0020:  DECFSZ 77,F
0021:  GOTO   020
....................    output_low (trigger); 
0022:  BCF    2A.4
0023:  MOVF   2A,W
0024:  BSF    03.5
0025:  MOVWF  07
0026:  BCF    03.5
0027:  BCF    07.4
....................    set_timer1(0);
0028:  CLRF   0E
0029:  CLRF   0F
002A:  CLRF   0E
002B:  NOP
....................    while(!input(echo));
002C:  BSF    2A.3
002D:  MOVF   2A,W
002E:  BSF    03.5
002F:  MOVWF  07
0030:  BCF    03.5
0031:  BTFSS  07.3
0032:  GOTO   02C
....................    setup_timer_1(T1_Internal | T1_DIV_BY_4);  // ( Focs = 20MHz ) chia truoc 4 = 5Mhz
0033:  MOVLW  25
0034:  MOVWF  10
....................                                                       // => 1us thi` TMR d?m 0.8 l?`n (Prescaler = 4)
....................     //=> TMR * 0.8 = t (us)
....................                                                       //d = t / 58
....................                                                       //=> d = (TMR*0.8)/58
....................    while(input(echo));
0035:  BSF    2A.3
0036:  MOVF   2A,W
0037:  BSF    03.5
0038:  MOVWF  07
0039:  BCF    03.5
003A:  BTFSC  07.3
003B:  GOTO   035
....................    xung = get_timer1();
003C:  MOVF   0F,W
003D:  MOVWF  7A
003E:  MOVF   0E,W
003F:  MOVWF  77
0040:  MOVF   0F,W
0041:  SUBWF  7A,W
0042:  BTFSS  03.2
0043:  GOTO   03C
0044:  MOVF   77,W
0045:  MOVWF  28
0046:  MOVF   7A,W
0047:  MOVWF  29
....................    setup_timer_1(T1_Disabled);
0048:  CLRF   10
....................    time=xung*0.8;
0049:  MOVF   29,W
004A:  MOVWF  2C
004B:  MOVF   28,W
004C:  MOVWF  2B
*
0069:  MOVF   7A,W
006A:  MOVWF  2E
006B:  MOVF   79,W
006C:  MOVWF  2D
006D:  MOVF   78,W
006E:  MOVWF  2C
006F:  MOVF   77,W
0070:  MOVWF  2B
0071:  MOVLW  CD
0072:  MOVWF  32
0073:  MOVLW  CC
0074:  MOVWF  31
0075:  MOVLW  4C
0076:  MOVWF  30
0077:  MOVLW  7E
0078:  MOVWF  2F
*
00ED:  MOVF   7A,W
00EE:  MOVWF  27
00EF:  MOVF   79,W
00F0:  MOVWF  26
00F1:  MOVF   78,W
00F2:  MOVWF  25
00F3:  MOVF   77,W
00F4:  MOVWF  24
....................    distance = (time/58.2);
00F5:  MOVF   27,W
00F6:  MOVWF  2E
00F7:  MOVF   26,W
00F8:  MOVWF  2D
00F9:  MOVF   25,W
00FA:  MOVWF  2C
00FB:  MOVF   24,W
00FC:  MOVWF  2B
00FD:  MOVLW  CD
00FE:  MOVWF  32
00FF:  MOVLW  CC
0100:  MOVWF  31
0101:  MOVLW  68
0102:  MOVWF  30
0103:  MOVLW  84
0104:  MOVWF  2F
*
01CE:  MOVF   7A,W
01CF:  MOVWF  23
01D0:  MOVF   79,W
01D1:  MOVWF  22
01D2:  MOVF   78,W
01D3:  MOVWF  21
01D4:  MOVF   77,W
01D5:  MOVWF  20
01D6:  BCF    0A.3
01D7:  BCF    0A.4
01D8:  GOTO   264 (RETURN)
.................... }
.................... 
.................... void main()
*
0218:  MOVF   03,W
0219:  ANDLW  1F
021A:  MOVWF  03
021B:  MOVLW  FF
021C:  MOVWF  2A
021D:  BSF    03.5
021E:  BSF    03.6
021F:  MOVF   09,W
0220:  ANDLW  C0
0221:  MOVWF  09
0222:  BCF    03.6
0223:  BCF    1F.4
0224:  BCF    1F.5
0225:  MOVLW  00
0226:  BSF    03.6
0227:  MOVWF  08
0228:  BCF    03.5
0229:  CLRF   07
022A:  CLRF   08
022B:  CLRF   09
022C:  BCF    03.7
.................... {
....................          set_tris_c(0x00);
022D:  MOVLW  00
022E:  BSF    03.5
022F:  BCF    03.6
0230:  MOVWF  07
0231:  BCF    03.5
0232:  MOVWF  2A
....................    set_tris_d(0x00);       set_tris_e(0x00);
0233:  BSF    03.5
0234:  MOVWF  08
0235:  BCF    09.0
0236:  BCF    09.1
0237:  BCF    09.2
0238:  BCF    09.3
....................    setup_ccp1(ccp_pwm);
0239:  BCF    03.5
023A:  BCF    2A.2
023B:  MOVF   2A,W
023C:  BSF    03.5
023D:  MOVWF  07
023E:  BCF    03.5
023F:  BCF    07.2
0240:  MOVLW  0C
0241:  MOVWF  17
0242:  BSF    03.5
0243:  CLRF   1B
0244:  CLRF   1C
0245:  MOVLW  01
0246:  MOVWF  1D
....................    setup_ccp2(ccp_pwm);
0247:  BCF    03.5
0248:  BCF    2A.1
0249:  MOVF   2A,W
024A:  BSF    03.5
024B:  MOVWF  07
024C:  BCF    03.5
024D:  BCF    07.1
024E:  MOVLW  0C
024F:  MOVWF  1D
....................    setup_timer_2(t2_div_by_16,249,1);
0250:  MOVLW  00
0251:  MOVWF  78
0252:  IORLW  06
0253:  MOVWF  12
0254:  MOVLW  F9
0255:  BSF    03.5
0256:  MOVWF  12
....................    set_pwm1_duty(0);    set_pwm2_duty(0);
0257:  BCF    03.5
0258:  CLRF   15
0259:  CLRF   1B
....................    output_high(motor_en); 
025A:  BCF    2A.7
025B:  MOVF   2A,W
025C:  BSF    03.5
025D:  MOVWF  07
025E:  BCF    03.5
025F:  BSF    07.7
....................    delay_ms(100);
0260:  MOVLW  64
0261:  MOVWF  2B
0262:  CALL   004
.................... 
....................   // tocdo(200);     
....................    while(true)
....................    { 
....................      get_distance();
0263:  GOTO   018
....................          IF ((distance > 4)&& (distance <7))
0264:  CLRF   2E
0265:  CLRF   2D
0266:  CLRF   2C
0267:  MOVLW  81
0268:  MOVWF  2B
0269:  MOVF   23,W
026A:  MOVWF  32
026B:  MOVF   22,W
026C:  MOVWF  31
026D:  MOVF   21,W
026E:  MOVWF  30
026F:  MOVF   20,W
0270:  MOVWF  2F
0271:  CALL   1D9
0272:  BTFSS  03.0
0273:  GOTO   295
0274:  MOVF   23,W
0275:  MOVWF  2E
0276:  MOVF   22,W
0277:  MOVWF  2D
0278:  MOVF   21,W
0279:  MOVWF  2C
027A:  MOVF   20,W
027B:  MOVWF  2B
027C:  CLRF   32
027D:  CLRF   31
027E:  MOVLW  60
027F:  MOVWF  30
0280:  MOVLW  81
0281:  MOVWF  2F
0282:  CALL   1D9
0283:  BTFSS  03.0
0284:  GOTO   295
....................          {
....................          output_high(led);
0285:  BCF    2A.0
0286:  MOVF   2A,W
0287:  BSF    03.5
0288:  MOVWF  07
0289:  BCF    03.5
028A:  BSF    07.0
....................          set_pwm2_duty(500);
028B:  MOVLW  7D
028C:  MOVWF  1B
028D:  MOVF   1D,W
028E:  ANDLW  CF
028F:  MOVWF  1D
....................          set_pwm1_duty(0);   
0290:  CLRF   15
....................          delay_ms(20);
0291:  MOVLW  14
0292:  MOVWF  2B
0293:  CALL   004
....................          }
0294:  GOTO   2B4
....................          else if (distance < 4)
0295:  MOVF   23,W
0296:  MOVWF  2E
0297:  MOVF   22,W
0298:  MOVWF  2D
0299:  MOVF   21,W
029A:  MOVWF  2C
029B:  MOVF   20,W
029C:  MOVWF  2B
029D:  CLRF   32
029E:  CLRF   31
029F:  CLRF   30
02A0:  MOVLW  81
02A1:  MOVWF  2F
02A2:  CALL   1D9
02A3:  BTFSS  03.0
02A4:  GOTO   2B4
....................          {
....................          output_low(led);
02A5:  BCF    2A.0
02A6:  MOVF   2A,W
02A7:  BSF    03.5
02A8:  MOVWF  07
02A9:  BCF    03.5
02AA:  BCF    07.0
....................          set_pwm1_duty(500);
02AB:  MOVLW  7D
02AC:  MOVWF  15
02AD:  MOVF   17,W
02AE:  ANDLW  CF
02AF:  MOVWF  17
....................          set_pwm2_duty(0); 
02B0:  CLRF   1B
.................... 
....................          delay_ms(20);
02B1:  MOVLW  14
02B2:  MOVWF  2B
02B3:  CALL   004
....................          }
02B4:  GOTO   263
....................       
.................... 
....................  
....................    }
.................... }
.................... 
02B5:  SLEEP

Configuration Fuses:
   Word  1: 2FE2   HS NOWDT PUT MCLR NOPROTECT NOCPD BROWNOUT IESO FCMEN NOLVP NODEBUG
   Word  2: 3FFF   BORV40 NOWRT
